target datalayout = "e-m:e-p270:32:32-p271:32:32-p272:64:64-i64:64-i128:128-f80:128-n8:16:32:64-S128"
target triple = "x86_64-pc-linux-gnu"

%struct.lxb_html_tree = type { ptr, ptr, ptr, ptr, ptr, ptr, ptr, %struct.lxb_html_tree_pending_table_t, ptr, i8, i8, i8, i8, i8, i8, ptr, ptr, ptr, i32, i64 }
%struct.lxb_html_tree_pending_table_t = type { ptr, i8 }

; Function Attrs: inlinehint nounwind uwtable
define internal ptr @lxb_html_tree_insert_html_element(ptr noundef %0, ptr noundef %1) #3 {
  %3 = alloca ptr, align 8
  %4 = alloca ptr, align 8
  store ptr %0, ptr %3, align 8, !tbaa !4
  store ptr %1, ptr %4, align 8, !tbaa !9
  %5 = load ptr, ptr %3, align 8, !tbaa !4
  %6 = load ptr, ptr %4, align 8, !tbaa !9
  %7 = call ptr @lxb_html_tree_insert_foreign_element(ptr noundef %5, ptr noundef %6, i64 noundef 2)
  ret ptr %7
}

; Function Attrs: inlinehint nounwind uwtable
define internal zeroext i1 @lxb_html_tree_insertion_mode_in_body_nobr(ptr noundef %0, ptr noundef %1) #3 {
  %3 = alloca i1, align 1
  %4 = alloca ptr, align 8
  %5 = alloca ptr, align 8
  %6 = alloca ptr, align 8
  %7 = alloca ptr, align 8
  %8 = alloca i32, align 4
  store ptr %0, ptr %4, align 8, !tbaa !4
  store ptr %1, ptr %5, align 8, !tbaa !9
  call void @llvm.lifetime.start.p0(i64 8, ptr %6) #5
  call void @llvm.lifetime.start.p0(i64 8, ptr %7) #5
  %9 = load ptr, ptr %4, align 8, !tbaa !4
  %10 = call i32 @lxb_html_tree_active_formatting_reconstruct_elements(ptr noundef %9)
  %11 = load ptr, ptr %4, align 8, !tbaa !4
  %12 = getelementptr inbounds nuw %struct.lxb_html_tree, ptr %11, i32 0, i32 18
  store i32 %10, ptr %12, align 8, !tbaa !25
  %13 = load ptr, ptr %4, align 8, !tbaa !4
  %14 = getelementptr inbounds nuw %struct.lxb_html_tree, ptr %13, i32 0, i32 18
  %15 = load i32, ptr %14, align 8, !tbaa !25
  %16 = icmp ne i32 %15, 0
  br i1 %16, label %17, label %20

17:                                               ; preds = %2
  %18 = load ptr, ptr %4, align 8, !tbaa !4
  %19 = call zeroext i1 @lxb_html_tree_process_abort(ptr noundef %18)
  store i1 %19, ptr %3, align 1
  store i32 1, ptr %8, align 4
  br label %68

20:                                               ; preds = %2
  %21 = load ptr, ptr %4, align 8, !tbaa !4
  %22 = call ptr @lxb_html_tree_element_in_scope(ptr noundef %21, i64 noundef 136, i64 noundef 2, i32 noundef 8)
  store ptr %22, ptr %6, align 8, !tbaa !37
  %23 = load ptr, ptr %6, align 8, !tbaa !37
  %24 = icmp ne ptr %23, null
  br i1 %24, label %25, label %53

25:                                               ; preds = %20
  %26 = load ptr, ptr %4, align 8, !tbaa !4
  %27 = load ptr, ptr %5, align 8, !tbaa !9
  call void @lxb_html_tree_parse_error(ptr noundef %26, ptr noundef %27, i32 noundef 26)
  %28 = load ptr, ptr %4, align 8, !tbaa !4
  %29 = load ptr, ptr %5, align 8, !tbaa !9
  %30 = load ptr, ptr %4, align 8, !tbaa !4
  %31 = getelementptr inbounds nuw %struct.lxb_html_tree, ptr %30, i32 0, i32 18
  %32 = call zeroext i1 @lxb_html_tree_adoption_agency_algorithm(ptr noundef %28, ptr noundef %29, ptr noundef %31)
  %33 = load ptr, ptr %4, align 8, !tbaa !4
  %34 = getelementptr inbounds nuw %struct.lxb_html_tree, ptr %33, i32 0, i32 18
  %35 = load i32, ptr %34, align 8, !tbaa !25
  %36 = icmp ne i32 %35, 0
  br i1 %36, label %37, label %40

37:                                               ; preds = %25
  %38 = load ptr, ptr %4, align 8, !tbaa !4
  %39 = call zeroext i1 @lxb_html_tree_process_abort(ptr noundef %38)
  store i1 %39, ptr %3, align 1
  store i32 1, ptr %8, align 4
  br label %68

40:                                               ; preds = %25
  %41 = load ptr, ptr %4, align 8, !tbaa !4
  %42 = call i32 @lxb_html_tree_active_formatting_reconstruct_elements(ptr noundef %41)
  %43 = load ptr, ptr %4, align 8, !tbaa !4
  %44 = getelementptr inbounds nuw %struct.lxb_html_tree, ptr %43, i32 0, i32 18
  store i32 %42, ptr %44, align 8, !tbaa !25
  %45 = load ptr, ptr %4, align 8, !tbaa !4
  %46 = getelementptr inbounds nuw %struct.lxb_html_tree, ptr %45, i32 0, i32 18
  %47 = load i32, ptr %46, align 8, !tbaa !25
  %48 = icmp ne i32 %47, 0
  br i1 %48, label %49, label %52

49:                                               ; preds = %40
  %50 = load ptr, ptr %4, align 8, !tbaa !4
  %51 = call zeroext i1 @lxb_html_tree_process_abort(ptr noundef %50)
  store i1 %51, ptr %3, align 1
  store i32 1, ptr %8, align 4
  br label %68

52:                                               ; preds = %40
  br label %53

53:                                               ; preds = %52, %20
  %54 = load ptr, ptr %4, align 8, !tbaa !4
  %55 = load ptr, ptr %5, align 8, !tbaa !9
  %56 = call ptr @lxb_html_tree_insert_html_element(ptr noundef %54, ptr noundef %55)
  store ptr %56, ptr %7, align 8, !tbaa !40
  %57 = load ptr, ptr %7, align 8, !tbaa !40
  %58 = icmp eq ptr %57, null
  br i1 %58, label %59, label %64

59:                                               ; preds = %53
  %60 = load ptr, ptr %4, align 8, !tbaa !4
  %61 = getelementptr inbounds nuw %struct.lxb_html_tree, ptr %60, i32 0, i32 18
  store i32 2, ptr %61, align 8, !tbaa !25
  %62 = load ptr, ptr %4, align 8, !tbaa !4
  %63 = call zeroext i1 @lxb_html_tree_process_abort(ptr noundef %62)
  store i1 %63, ptr %3, align 1
  store i32 1, ptr %8, align 4
  br label %68

64:                                               ; preds = %53
  %65 = load ptr, ptr %7, align 8, !tbaa !40
  store ptr %65, ptr %6, align 8, !tbaa !37
  %66 = load ptr, ptr %4, align 8, !tbaa !4
  %67 = load ptr, ptr %6, align 8, !tbaa !37
  call void @lxb_html_tree_active_formatting_push_with_check_dupl(ptr noundef %66, ptr noundef %67)
  store i1 true, ptr %3, align 1
  store i32 1, ptr %8, align 4
  br label %68

68:                                               ; preds = %64, %59, %49, %37, %17
  call void @llvm.lifetime.end.p0(i64 8, ptr %7) #5
  call void @llvm.lifetime.end.p0(i64 8, ptr %6) #5
  %69 = load i1, ptr %3, align 1
  ret i1 %69
}