; Function Attrs: inlinehint nounwind uwtable
define internal fastcc zeroext i1 @lxb_html_tree_insertion_mode_in_body_nobr(ptr noundef %0, ptr noundef %1) unnamed_addr #3 {
  %3 = tail call i32 @lxb_html_tree_active_formatting_reconstruct_elements(ptr noundef %0) #6
  %4 = getelementptr inbounds nuw i8, ptr %0, i64 112
  store i32 %3, ptr %4, align 8, !tbaa !22
  %.not = icmp eq i32 %3, 0
  br i1 %.not, label %7, label %5

5:                                                ; preds = %2
  %6 = tail call zeroext i1 @lxb_html_tree_process_abort(ptr noundef nonnull %0) #6
  br label %24

7:                                                ; preds = %2
  %8 = tail call ptr @lxb_html_tree_element_in_scope(ptr noundef nonnull %0, i64 noundef 136, i64 noundef 2, i32 noundef 8) #6
  %.not27 = icmp eq ptr %8, null
  br i1 %.not27, label %18, label %9

9:                                                ; preds = %7
  tail call void @lxb_html_tree_parse_error(ptr noundef nonnull %0, ptr noundef %1, i32 noundef 26) #6
  %10 = tail call zeroext i1 @lxb_html_tree_adoption_agency_algorithm(ptr noundef nonnull %0, ptr noundef %1, ptr noundef nonnull %4) #6
  %11 = load i32, ptr %4, align 8, !tbaa !22
  %.not28 = icmp eq i32 %11, 0
  br i1 %.not28, label %14, label %12

12:                                               ; preds = %9
  %13 = tail call zeroext i1 @lxb_html_tree_process_abort(ptr noundef nonnull %0) #6
  br label %24

14:                                               ; preds = %9
  %15 = tail call i32 @lxb_html_tree_active_formatting_reconstruct_elements(ptr noundef nonnull %0) #6
  store i32 %15, ptr %4, align 8, !tbaa !22
  %.not29 = icmp eq i32 %15, 0
  br i1 %.not29, label %18, label %16

16:                                               ; preds = %14
  %17 = tail call zeroext i1 @lxb_html_tree_process_abort(ptr noundef nonnull %0) #6
  br label %24

18:                                               ; preds = %14, %7
  %19 = tail call ptr @lxb_html_tree_insert_foreign_element(ptr noundef nonnull %0, ptr noundef %1, i64 noundef 2) #6
  %20 = icmp eq ptr %19, null
  br i1 %20, label %21, label %23

21:                                               ; preds = %18
  store i32 2, ptr %4, align 8, !tbaa !22
  %22 = tail call zeroext i1 @lxb_html_tree_process_abort(ptr noundef nonnull %0) #6
  br label %24

23:                                               ; preds = %18
  tail call void @lxb_html_tree_active_formatting_push_with_check_dupl(ptr noundef nonnull %0, ptr noundef nonnull %19) #6
  br label %24

24:                                               ; preds = %23, %21, %16, %12, %5
  %.0 = phi i1 [ %6, %5 ], [ %13, %12 ], [ %17, %16 ], [ %22, %21 ], [ true, %23 ]
  ret i1 %.0
}